target datalayout = "e-m:e-p270:32:32-p271:32:32-p272:64:64-i64:64-i128:128-f80:128-n8:16:32:64-S128"
target triple = "x86_64-pc-linux-gnu"

%class.TravelSalesman = type { ptr, ptr, %"class.cv::RNG", i32, i32, i32, i32 }
%"class.cv::RNG" = type { i64 }
%"struct.std::_Vector_base" = type { %"struct.std::_Vector_base<cv::Point_<int>, std::allocator<cv::Point_<int>>>::_Vector_impl" }
%"struct.std::_Vector_base<cv::Point_<int>, std::allocator<cv::Point_<int>>>::_Vector_impl" = type { %"struct.std::_Vector_base<cv::Point_<int>, std::allocator<cv::Point_<int>>>::_Vector_impl_data" }
%"struct.std::_Vector_base<cv::Point_<int>, std::allocator<cv::Point_<int>>>::_Vector_impl_data" = type { ptr, ptr, ptr }
%"struct.std::_Vector_base.1" = type { %"struct.std::_Vector_base<int, std::allocator<int>>::_Vector_impl" }
%"struct.std::_Vector_base<int, std::allocator<int>>::_Vector_impl" = type { %"struct.std::_Vector_base<int, std::allocator<int>>::_Vector_impl_data" }
%"struct.std::_Vector_base<int, std::allocator<int>>::_Vector_impl_data" = type { ptr, ptr, ptr }

; Function Attrs: mustprogress nounwind uwtable
define linkonce_odr hidden noundef i32 @_ZN2cv3RNG4nextEv(ptr noundef nonnull align 8 dereferenceable(8) %0) #5 comdat align 2 {
  %2 = alloca ptr, align 8
  store ptr %0, ptr %2, align 8
  %3 = load ptr, ptr %2, align 8
  %4 = getelementptr inbounds %"class.cv::RNG", ptr %3, i32 0, i32 0
  %5 = load i64, ptr %4, align 8
  %6 = trunc i64 %5 to i32
  %7 = zext i32 %6 to i64
  %8 = mul i64 %7, 4164903690
  %9 = getelementptr inbounds %"class.cv::RNG", ptr %3, i32 0, i32 0
  %10 = load i64, ptr %9, align 8
  %11 = lshr i64 %10, 32
  %12 = trunc i64 %11 to i32
  %13 = zext i32 %12 to i64
  %14 = add i64 %8, %13
  %15 = getelementptr inbounds %"class.cv::RNG", ptr %3, i32 0, i32 0
  store i64 %14, ptr %15, align 8
  %16 = getelementptr inbounds %"class.cv::RNG", ptr %3, i32 0, i32 0
  %17 = load i64, ptr %16, align 8
  %18 = trunc i64 %17 to i32
  ret i32 %18
}

; Function Attrs: mustprogress nounwind uwtable
define linkonce_odr hidden noundef nonnull align 4 dereferenceable(4) ptr @_ZNSt6vectorIiSaIiEEixEm(ptr noundef nonnull align 8 dereferenceable(24) %0, i64 noundef %1) #5 comdat align 2 {
  %3 = alloca ptr, align 8
  %4 = alloca i64, align 8
  store ptr %0, ptr %3, align 8
  store i64 %1, ptr %4, align 8
  %5 = load ptr, ptr %3, align 8
  %6 = getelementptr inbounds %"struct.std::_Vector_base.1", ptr %5, i32 0, i32 0
  %7 = getelementptr inbounds %"struct.std::_Vector_base<int, std::allocator<int>>::_Vector_impl_data", ptr %6, i32 0, i32 0
  %8 = load ptr, ptr %7, align 8
  %9 = load i64, ptr %4, align 8
  %10 = getelementptr inbounds i32, ptr %8, i64 %9
  ret ptr %10
}

; Function Attrs: mustprogress uwtable
define linkonce_odr hidden noundef i32 @_ZN2cv3RNG7uniformEii(ptr noundef nonnull align 8 dereferenceable(8) %0, i32 noundef %1, i32 noundef %2) #4 comdat align 2 {
  %4 = alloca ptr, align 8
  %5 = alloca i32, align 4
  %6 = alloca i32, align 4
  store ptr %0, ptr %4, align 8
  store i32 %1, ptr %5, align 4
  store i32 %2, ptr %6, align 4
  %7 = load ptr, ptr %4, align 8
  %8 = load i32, ptr %5, align 4
  %9 = load i32, ptr %6, align 4
  %10 = icmp eq i32 %8, %9
  br i1 %10, label %11, label %13

11:                                               ; preds = %3
  %12 = load i32, ptr %5, align 4
  br label %21

13:                                               ; preds = %3
  %14 = call noundef i32 @_ZN2cv3RNG4nextEv(ptr noundef nonnull align 8 dereferenceable(8) %7)
  %15 = load i32, ptr %6, align 4
  %16 = load i32, ptr %5, align 4
  %17 = sub nsw i32 %15, %16
  %18 = urem i32 %14, %17
  %19 = load i32, ptr %5, align 4
  %20 = add i32 %18, %19
  br label %21

21:                                               ; preds = %13, %11
  %22 = phi i32 [ %12, %11 ], [ %20, %13 ]
  ret i32 %22
}

; Function Attrs: mustprogress nounwind uwtable
define linkonce_odr hidden noundef i64 @_ZNKSt6vectorIN2cv6Point_IiEESaIS2_EE4sizeEv(ptr noundef nonnull align 8 dereferenceable(24) %0) #5 comdat align 2 {
  %2 = alloca ptr, align 8
  store ptr %0, ptr %2, align 8
  %3 = load ptr, ptr %2, align 8
  %4 = getelementptr inbounds %"struct.std::_Vector_base", ptr %3, i32 0, i32 0
  %5 = getelementptr inbounds %"struct.std::_Vector_base<cv::Point_<int>, std::allocator<cv::Point_<int>>>::_Vector_impl_data", ptr %4, i32 0, i32 1
  %6 = load ptr, ptr %5, align 8
  %7 = getelementptr inbounds %"struct.std::_Vector_base", ptr %3, i32 0, i32 0
  %8 = getelementptr inbounds %"struct.std::_Vector_base<cv::Point_<int>, std::allocator<cv::Point_<int>>>::_Vector_impl_data", ptr %7, i32 0, i32 0
  %9 = load ptr, ptr %8, align 8
  %10 = ptrtoint ptr %6 to i64
  %11 = ptrtoint ptr %9 to i64
  %12 = sub i64 %10, %11
  %13 = sdiv exact i64 %12, 8
  ret i64 %13
}

; Function Attrs: mustprogress uwtable
define hidden void @_ZN14TravelSalesman11changeStateEv(ptr noundef nonnull align 8 dereferenceable(40) %0) #4 align 2 {
  %2 = alloca ptr, align 8
  store ptr %0, ptr %2, align 8
  %3 = load ptr, ptr %2, align 8
  %4 = getelementptr inbounds %class.TravelSalesman, ptr %3, i32 0, i32 2
  %5 = getelementptr inbounds %class.TravelSalesman, ptr %3, i32 0, i32 0
  %6 = load ptr, ptr %5, align 8
  %7 = call noundef i64 @_ZNKSt6vectorIN2cv6Point_IiEESaIS2_EE4sizeEv(ptr noundef nonnull align 8 dereferenceable(24) %6) #3
  %8 = trunc i64 %7 to i32
  %9 = call noundef i32 @_ZN2cv3RNG7uniformEii(ptr noundef nonnull align 8 dereferenceable(8) %4, i32 noundef 0, i32 noundef %8)
  %10 = getelementptr inbounds %class.TravelSalesman, ptr %3, i32 0, i32 3
  store i32 %9, ptr %10, align 8
  %11 = getelementptr inbounds %class.TravelSalesman, ptr %3, i32 0, i32 1
  %12 = load ptr, ptr %11, align 8
  %13 = getelementptr inbounds %class.TravelSalesman, ptr %3, i32 0, i32 3
  %14 = load i32, ptr %13, align 8
  %15 = sext i32 %14 to i64
  %16 = call noundef nonnull align 4 dereferenceable(4) ptr @_ZNSt6vectorIiSaIiEEixEm(ptr noundef nonnull align 8 dereferenceable(24) %12, i64 noundef %15) #3
  %17 = load i32, ptr %16, align 4
  %18 = getelementptr inbounds %class.TravelSalesman, ptr %3, i32 0, i32 4
  store i32 %17, ptr %18, align 4
  %19 = getelementptr inbounds %class.TravelSalesman, ptr %3, i32 0, i32 1
  %20 = load ptr, ptr %19, align 8
  %21 = getelementptr inbounds %class.TravelSalesman, ptr %3, i32 0, i32 4
  %22 = load i32, ptr %21, align 4
  %23 = sext i32 %22 to i64
  %24 = call noundef nonnull align 4 dereferenceable(4) ptr @_ZNSt6vectorIiSaIiEEixEm(ptr noundef nonnull align 8 dereferenceable(24) %20, i64 noundef %23) #3
  %25 = load i32, ptr %24, align 4
  %26 = getelementptr inbounds %class.TravelSalesman, ptr %3, i32 0, i32 5
  store i32 %25, ptr %26, align 8
  %27 = getelementptr inbounds %class.TravelSalesman, ptr %3, i32 0, i32 1
  %28 = load ptr, ptr %27, align 8
  %29 = getelementptr inbounds %class.TravelSalesman, ptr %3, i32 0, i32 5
  %30 = load i32, ptr %29, align 8
  %31 = sext i32 %30 to i64
  %32 = call noundef nonnull align 4 dereferenceable(4) ptr @_ZNSt6vectorIiSaIiEEixEm(ptr noundef nonnull align 8 dereferenceable(24) %28, i64 noundef %31) #3
  %33 = load i32, ptr %32, align 4
  %34 = getelementptr inbounds %class.TravelSalesman, ptr %3, i32 0, i32 6
  store i32 %33, ptr %34, align 4
  %35 = getelementptr inbounds %class.TravelSalesman, ptr %3, i32 0, i32 5
  %36 = load i32, ptr %35, align 8
  %37 = getelementptr inbounds %class.TravelSalesman, ptr %3, i32 0, i32 1
  %38 = load ptr, ptr %37, align 8
  %39 = getelementptr inbounds %class.TravelSalesman, ptr %3, i32 0, i32 3
  %40 = load i32, ptr %39, align 8
  %41 = sext i32 %40 to i64
  %42 = call noundef nonnull align 4 dereferenceable(4) ptr @_ZNSt6vectorIiSaIiEEixEm(ptr noundef nonnull align 8 dereferenceable(24) %38, i64 noundef %41) #3
  store i32 %36, ptr %42, align 4
  %43 = getelementptr inbounds %class.TravelSalesman, ptr %3, i32 0, i32 4
  %44 = load i32, ptr %43, align 4
  %45 = getelementptr inbounds %class.TravelSalesman, ptr %3, i32 0, i32 1
  %46 = load ptr, ptr %45, align 8
  %47 = getelementptr inbounds %class.TravelSalesman, ptr %3, i32 0, i32 5
  %48 = load i32, ptr %47, align 8
  %49 = sext i32 %48 to i64
  %50 = call noundef nonnull align 4 dereferenceable(4) ptr @_ZNSt6vectorIiSaIiEEixEm(ptr noundef nonnull align 8 dereferenceable(24) %46, i64 noundef %49) #3
  store i32 %44, ptr %50, align 4
  %51 = getelementptr inbounds %class.TravelSalesman, ptr %3, i32 0, i32 6
  %52 = load i32, ptr %51, align 4
  %53 = getelementptr inbounds %class.TravelSalesman, ptr %3, i32 0, i32 1
  %54 = load ptr, ptr %53, align 8
  %55 = getelementptr inbounds %class.TravelSalesman, ptr %3, i32 0, i32 4
  %56 = load i32, ptr %55, align 4
  %57 = sext i32 %56 to i64
  %58 = call noundef nonnull align 4 dereferenceable(4) ptr @_ZNSt6vectorIiSaIiEEixEm(ptr noundef nonnull align 8 dereferenceable(24) %54, i64 noundef %57) #3
  store i32 %52, ptr %58, align 4
  ret void
}