; Function Attrs: mustprogress nofree norecurse nosync nounwind willreturn memory(readwrite, inaccessiblemem: none) uwtable
define hidden void @_ZN14TravelSalesman11changeStateEv(ptr nocapture noundef nonnull align 8 dereferenceable(40) %0) local_unnamed_addr #3 align 2 {
  %2 = load ptr, ptr %0, align 8
  %3 = getelementptr inbounds i8, ptr %2, i64 8
  %4 = load ptr, ptr %3, align 8
  %5 = load ptr, ptr %2, align 8
  %6 = ptrtoint ptr %4 to i64
  %7 = ptrtoint ptr %5 to i64
  %8 = sub i64 %6, %7
  %9 = lshr exact i64 %8, 3
  %10 = trunc i64 %9 to i32
  %11 = icmp eq i32 %10, 0
  br i1 %11, label %_ZN2cv3RNG7uniformEii.exit, label %12

12:                                               ; preds = %1
  %13 = getelementptr inbounds i8, ptr %0, i64 16
  %14 = load i64, ptr %13, align 8
  %15 = and i64 %14, 4294967295
  %16 = mul nuw i64 %15, 4164903690
  %17 = lshr i64 %14, 32
  %18 = add nuw i64 %16, %17
  store i64 %18, ptr %13, align 8
  %19 = trunc i64 %18 to i32
  %20 = urem i32 %19, %10
  br label %_ZN2cv3RNG7uniformEii.exit

_ZN2cv3RNG7uniformEii.exit:                       ; preds = %1, %12
  %21 = phi i32 [ %20, %12 ], [ 0, %1 ]
  %22 = getelementptr inbounds i8, ptr %0, i64 24
  store i32 %21, ptr %22, align 8
  %23 = getelementptr inbounds i8, ptr %0, i64 8
  %24 = load ptr, ptr %23, align 8
  %25 = sext i32 %21 to i64
  %26 = load ptr, ptr %24, align 8
  %27 = getelementptr inbounds i32, ptr %26, i64 %25
  %28 = load i32, ptr %27, align 4
  %29 = getelementptr inbounds i8, ptr %0, i64 28
  store i32 %28, ptr %29, align 4
  %30 = sext i32 %28 to i64
  %31 = load ptr, ptr %24, align 8
  %32 = getelementptr inbounds i32, ptr %31, i64 %30
  %33 = load i32, ptr %32, align 4
  %34 = getelementptr inbounds i8, ptr %0, i64 32
  store i32 %33, ptr %34, align 8
  %35 = sext i32 %33 to i64
  %36 = load ptr, ptr %24, align 8
  %37 = getelementptr inbounds i32, ptr %36, i64 %35
  %38 = load i32, ptr %37, align 4
  %39 = getelementptr inbounds i8, ptr %0, i64 36
  store i32 %38, ptr %39, align 4
  %40 = load ptr, ptr %24, align 8
  %41 = getelementptr inbounds i32, ptr %40, i64 %25
  store i32 %33, ptr %41, align 4
  %42 = load i32, ptr %29, align 4
  %43 = load ptr, ptr %23, align 8
  %44 = load i32, ptr %34, align 8
  %45 = sext i32 %44 to i64
  %46 = load ptr, ptr %43, align 8
  %47 = getelementptr inbounds i32, ptr %46, i64 %45
  store i32 %42, ptr %47, align 4
  %48 = load i32, ptr %39, align 4
  %49 = load ptr, ptr %23, align 8
  %50 = sext i32 %42 to i64
  %51 = load ptr, ptr %49, align 8
  %52 = getelementptr inbounds i32, ptr %51, i64 %50
  store i32 %48, ptr %52, align 4
  ret void
}